; Function Attrs: mustprogress uwtable
define noundef zeroext i1 @_ZN32pxrInternal_v0_24__pxrReserved__8JsWriter8WriteKeyERKNSt7__cxx1112basic_stringIcSt11char_traitsIcESaIcEEE(ptr noundef nonnull readonly align 8 captures(none) dereferenceable(8) %0, ptr noundef nonnull align 8 dereferenceable(32) %1) local_unnamed_addr #3 align 2 {
  %3 = load ptr, ptr %0, align 8
  %.val = load ptr, ptr %3, align 8
  %4 = tail call noundef ptr @_ZNKSt7__cxx1112basic_stringIcSt11char_traitsIcESaIcEE5c_strEv(ptr noundef nonnull align 8 dereferenceable(32) %1) #24
  %5 = tail call noundef i64 @_ZNKSt7__cxx1112basic_stringIcSt11char_traitsIcESaIcEE6lengthEv(ptr noundef nonnull align 8 dereferenceable(32) %1) #24
  %6 = load ptr, ptr %.val, align 8
  %7 = getelementptr inbounds nuw i8, ptr %6, i64 88
  %8 = load ptr, ptr %7, align 8
  %9 = tail call noundef zeroext i1 %8(ptr noundef nonnull align 8 dereferenceable(8) %.val, ptr noundef %4, i64 noundef %5)
  ret i1 %9
}